; ModuleID = '29/178.c'
source_filename = "29/178.c"
target datalayout = "e-m:e-p270:32:32-p271:32:32-p272:64:64-i64:64-f80:128-n8:16:32:64-S128"
target triple = "x86_64-pc-linux-gnu"

@.str = private unnamed_addr constant [3 x i8] c"%d\00", align 1
@.str.1 = private unnamed_addr constant [6 x i8] c"%.3f\0A\00", align 1

; Function Attrs: noinline nounwind uwtable
define dso_local i32 @main() #0 {
  %1 = alloca i32, align 4
  %2 = alloca i32, align 4
  %3 = alloca i32, align 4
  %4 = alloca i32, align 4
  %5 = alloca i32, align 4
  %6 = alloca [30 x float], align 16
  %7 = alloca [30 x float], align 16
  %8 = alloca float, align 4
  store i32 0, i32* %1, align 4
  %9 = call i32 (i8*, ...) @__isoc99_scanf(i8* getelementptr inbounds ([3 x i8], [3 x i8]* @.str, i64 0, i64 0), i32* %2)
  store i32 0, i32* %3, align 4
  br label %10

10:                                               ; preds = %92, %0
  %11 = load i32, i32* %3, align 4
  %12 = load i32, i32* %2, align 4
  %13 = icmp slt i32 %11, %12
  br i1 %13, label %14, label %95

14:                                               ; preds = %10
  %15 = call i32 (i8*, ...) @__isoc99_scanf(i8* getelementptr inbounds ([3 x i8], [3 x i8]* @.str, i64 0, i64 0), i32* %5)
  %16 = getelementptr inbounds [30 x float], [30 x float]* %6, i64 0, i64 0
  store float 2.000000e+00, float* %16, align 16
  %17 = getelementptr inbounds [30 x float], [30 x float]* %7, i64 0, i64 0
  store float 1.000000e+00, float* %17, align 16
  store float 0.000000e+00, float* %8, align 4
  store i32 0, i32* %4, align 4
  br label %18

18:                                               ; preds = %85, %14
  %19 = load i32, i32* %4, align 4
  %20 = load i32, i32* %5, align 4
  %21 = icmp slt i32 %19, %20
  br i1 %21, label %22, label %88

22:                                               ; preds = %18
  %23 = load i32, i32* %4, align 4
  %24 = sext i32 %23 to i64
  %25 = getelementptr inbounds [30 x float], [30 x float]* %6, i64 0, i64 %24
  %26 = load float, float* %25, align 4
  %27 = load i32, i32* %4, align 4
  %28 = sext i32 %27 to i64
  %29 = getelementptr inbounds [30 x float], [30 x float]* %7, i64 0, i64 %28
  %30 = load float, float* %29, align 4
  %31 = fdiv float %26, %30
  %32 = load float, float* %8, align 4
  %33 = fadd float %32, %31
  store float %33, float* %8, align 4
  %34 = load i32, i32* %4, align 4
  %35 = icmp eq i32 %34, 0
  br i1 %35, label %36, label %55

36:                                               ; preds = %22
  %37 = load i32, i32* %4, align 4
  %38 = sext i32 %37 to i64
  %39 = getelementptr inbounds [30 x float], [30 x float]* %6, i64 0, i64 %38
  %40 = load float, float* %39, align 4
  %41 = fadd float %40, 1.000000e+00
  %42 = load i32, i32* %4, align 4
  %43 = add nsw i32 %42, 1
  %44 = sext i32 %43 to i64
  %45 = getelementptr inbounds [30 x float], [30 x float]* %6, i64 0, i64 %44
  store float %41, float* %45, align 4
  %46 = load i32, i32* %4, align 4
  %47 = sext i32 %46 to i64
  %48 = getelementptr inbounds [30 x float], [30 x float]* %7, i64 0, i64 %47
  %49 = load float, float* %48, align 4
  %50 = fadd float %49, 1.000000e+00
  %51 = load i32, i32* %4, align 4
  %52 = add nsw i32 %51, 1
  %53 = sext i32 %52 to i64
  %54 = getelementptr inbounds [30 x float], [30 x float]* %7, i64 0, i64 %53
  store float %50, float* %54, align 4
  br label %84

55:                                               ; preds = %22
  %56 = load i32, i32* %4, align 4
  %57 = sext i32 %56 to i64
  %58 = getelementptr inbounds [30 x float], [30 x float]* %6, i64 0, i64 %57
  %59 = load float, float* %58, align 4
  %60 = load i32, i32* %4, align 4
  %61 = sub nsw i32 %60, 1
  %62 = sext i32 %61 to i64
  %63 = getelementptr inbounds [30 x float], [30 x float]* %6, i64 0, i64 %62
  %64 = load float, float* %63, align 4
  %65 = fadd float %59, %64
  %66 = load i32, i32* %4, align 4
  %67 = add nsw i32 %66, 1
  %68 = sext i32 %67 to i64
  %69 = getelementptr inbounds [30 x float], [30 x float]* %6, i64 0, i64 %68
  store float %65, float* %69, align 4
  %70 = load i32, i32* %4, align 4
  %71 = sext i32 %70 to i64
  %72 = getelementptr inbounds [30 x float], [30 x float]* %7, i64 0, i64 %71
  %73 = load float, float* %72, align 4
  %74 = load i32, i32* %4, align 4
  %75 = sub nsw i32 %74, 1
  %76 = sext i32 %75 to i64
  %77 = getelementptr inbounds [30 x float], [30 x float]* %7, i64 0, i64 %76
  %78 = load float, float* %77, align 4
  %79 = fadd float %73, %78
  %80 = load i32, i32* %4, align 4
  %81 = add nsw i32 %80, 1
  %82 = sext i32 %81 to i64
  %83 = getelementptr inbounds [30 x float], [30 x float]* %7, i64 0, i64 %82
  store float %79, float* %83, align 4
  br label %84

84:                                               ; preds = %55, %36
  br label %85

85:                                               ; preds = %84
  %86 = load i32, i32* %4, align 4
  %87 = add nsw i32 %86, 1
  store i32 %87, i32* %4, align 4
  br label %18

88:                                               ; preds = %18
  %89 = load float, float* %8, align 4
  %90 = fpext float %89 to double
  %91 = call i32 (i8*, ...) @printf(i8* getelementptr inbounds ([6 x i8], [6 x i8]* @.str.1, i64 0, i64 0), double %90)
  br label %92

92:                                               ; preds = %88
  %93 = load i32, i32* %3, align 4
  %94 = add nsw i32 %93, 1
  store i32 %94, i32* %3, align 4
  br label %10

95:                                               ; preds = %10
  ret i32 0
}

declare dso_local i32 @__isoc99_scanf(i8*, ...) #1

declare dso_local i32 @printf(i8*, ...) #1


!llvm.module.flags = !{!0}
!llvm.ident = !{!1}

!0 = !{i32 1, !"wchar_size", i32 4}
!1 = !{!"clang version 10.0.0-4ubuntu1 "}
